target datalayout = "e-m:e-p270:32:32-p271:32:32-p272:64:64-i64:64-i128:128-f80:128-n8:16:32:64-S128"
target triple = "x86_64-pc-linux-gnu"

%class.LogTagSet = type { ptr, i64, [5 x i32], [4 x i8], %class.LogOutputList, %class.LogDecorators, ptr }
%class.LogOutputList = type <{ [6 x ptr], i32, [4 x i8] }>
%class.LogDecorators = type { i32 }
%class.XDriverRequest = type { i32, i32 }

@_ZN16LogTagSetMappingILN6LogTag4typeE49ELS1_37ELS1_0ELS1_0ELS1_0ELS1_0EE7_tagsetE = linkonce_odr hidden global %class.LogTagSet zeroinitializer, comdat, align 8
@ZCollectionInterval = external global double, align 8
@.str.13 = private unnamed_addr constant [49 x i8] c"Rule: Timer, Interval: %.3fs, TimeUntilGC: %.3fs\00", align 1

; Function Attrs: mustprogress nounwind uwtable
define linkonce_odr hidden noundef zeroext i1 @_ZNK13LogOutputList8is_levelEN8LogLevel4typeE(ptr noundef nonnull align 8 dereferenceable(52) %0, i32 noundef %1) #1 comdat align 2 {
  %3 = alloca ptr, align 8
  %4 = alloca i32, align 4
  store ptr %0, ptr %3, align 8
  store i32 %1, ptr %4, align 4
  %5 = load ptr, ptr %3, align 8
  %6 = getelementptr inbounds %class.LogOutputList, ptr %5, i32 0, i32 0
  %7 = load i32, ptr %4, align 4
  %8 = zext i32 %7 to i64
  %9 = getelementptr inbounds [6 x ptr], ptr %6, i64 0, i64 %8
  %10 = load volatile ptr, ptr %9, align 8
  %11 = icmp ne ptr %10, null
  ret i1 %11
}

; Function Attrs: mustprogress nounwind uwtable
define linkonce_odr hidden noundef zeroext i1 @_ZNK9LogTagSet8is_levelEN8LogLevel4typeE(ptr noundef nonnull align 8 dereferenceable(112) %0, i32 noundef %1) #1 comdat align 2 {
  %3 = alloca ptr, align 8
  %4 = alloca i32, align 4
  store ptr %0, ptr %3, align 8
  store i32 %1, ptr %4, align 4
  %5 = load ptr, ptr %3, align 8
  %6 = getelementptr inbounds %class.LogTagSet, ptr %5, i32 0, i32 4
  %7 = load i32, ptr %4, align 4
  %8 = call noundef zeroext i1 @_ZNK13LogOutputList8is_levelEN8LogLevel4typeE(ptr noundef nonnull align 8 dereferenceable(52) %6, i32 noundef %7)
  ret i1 %8
}

; Function Attrs: mustprogress nounwind uwtable
define linkonce_odr hidden noundef nonnull align 8 dereferenceable(112) ptr @_ZN16LogTagSetMappingILN6LogTag4typeE49ELS1_37ELS1_0ELS1_0ELS1_0ELS1_0EE6tagsetEv() #1 comdat align 2 {
  ret ptr @_ZN16LogTagSetMappingILN6LogTag4typeE49ELS1_37ELS1_0ELS1_0ELS1_0ELS1_0EE7_tagsetE
}

; Function Attrs: mustprogress nounwind uwtable
define linkonce_odr hidden noundef zeroext i1 @_ZN7LogImplILN6LogTag4typeE49ELS1_37ELS1_0ELS1_0ELS1_0ELS1_0EE8is_levelEN8LogLevel4typeE(i32 noundef %0) #1 comdat align 2 {
  %2 = alloca i32, align 4
  store i32 %0, ptr %2, align 4
  %3 = call noundef nonnull align 8 dereferenceable(112) ptr @_ZN16LogTagSetMappingILN6LogTag4typeE49ELS1_37ELS1_0ELS1_0ELS1_0ELS1_0EE6tagsetEv()
  %4 = load i32, ptr %2, align 4
  %5 = call noundef zeroext i1 @_ZNK9LogTagSet8is_levelEN8LogLevel4typeE(ptr noundef nonnull align 8 dereferenceable(112) %3, i32 noundef %4)
  ret i1 %5
}

; Function Attrs: mustprogress nounwind uwtable
define internal i64 @_ZL10rule_timerv() #1 {
  %1 = alloca %class.XDriverRequest, align 4
  %2 = alloca double, align 8
  %3 = alloca double, align 8
  %4 = load double, ptr @ZCollectionInterval, align 8
  %5 = fcmp ole double %4, 0.000000e+00
  br i1 %5, label %6, label %7

6:                                                ; preds = %0
  call void @_ZN14XDriverRequestC1EN7GCCause5CauseE(ptr noundef nonnull align 4 dereferenceable(8) %1, i32 noundef 11)
  br label %22

7:                                                ; preds = %0
  %8 = call noundef double @_ZN10XStatCycle15time_since_lastEv()
  store double %8, ptr %2, align 8
  %9 = load double, ptr @ZCollectionInterval, align 8
  %10 = load double, ptr %2, align 8
  %11 = fsub double %9, %10
  store double %11, ptr %3, align 8
  %12 = call noundef zeroext i1 @_ZN7LogImplILN6LogTag4typeE49ELS1_37ELS1_0ELS1_0ELS1_0ELS1_0EE8is_levelEN8LogLevel4typeE(i32 noundef 2)
  br i1 %12, label %14, label %13

13:                                               ; preds = %7
  br label %17

14:                                               ; preds = %7
  %15 = load double, ptr @ZCollectionInterval, align 8
  %16 = load double, ptr %3, align 8
  call void (ptr, ...) @_ZN7LogImplILN6LogTag4typeE49ELS1_37ELS1_0ELS1_0ELS1_0ELS1_0EE5writeILN8LogLevel4typeE2EEEvPKcz(ptr noundef @.str.13, double noundef %15, double noundef %16)
  br label %17

17:                                               ; preds = %14, %13
  %18 = load double, ptr %3, align 8
  %19 = fcmp ogt double %18, 0.000000e+00
  br i1 %19, label %20, label %21

20:                                               ; preds = %17
  call void @_ZN14XDriverRequestC1EN7GCCause5CauseE(ptr noundef nonnull align 4 dereferenceable(8) %1, i32 noundef 11)
  br label %22

21:                                               ; preds = %17
  call void @_ZN14XDriverRequestC1EN7GCCause5CauseE(ptr noundef nonnull align 4 dereferenceable(8) %1, i32 noundef 28)
  br label %22

22:                                               ; preds = %21, %20, %6
  %23 = load i64, ptr %1, align 4
  ret i64 %23
}