; Function Attrs: mustprogress nounwind uwtable
define internal i64 @_ZL10rule_timerv() #0 {
  %1 = alloca %class.XDriverRequest, align 8
  %2 = load double, ptr @ZCollectionInterval, align 8
  %3 = fcmp ugt double %2, 0.000000e+00
  br i1 %3, label %4, label %12

4:                                                ; preds = %0
  %5 = tail call noundef double @_ZN10XStatCycle15time_since_lastEv() #8
  %6 = load double, ptr @ZCollectionInterval, align 8
  %7 = fsub double %6, %5
  %8 = load volatile ptr, ptr getelementptr inbounds (i8, ptr @_ZN16LogTagSetMappingILN6LogTag4typeE49ELS1_37ELS1_0ELS1_0ELS1_0ELS1_0EE7_tagsetE, i64 56), align 8
  %.not = icmp eq ptr %8, null
  br i1 %.not, label %10, label %9

9:                                                ; preds = %4
  tail call void (ptr, ...) @_ZN7LogImplILN6LogTag4typeE49ELS1_37ELS1_0ELS1_0ELS1_0ELS1_0EE5writeILN8LogLevel4typeE2EEEvPKcz(ptr noundef nonnull @.str.13, double noundef %6, double noundef %7)
  br label %10

10:                                               ; preds = %4, %9
  %11 = fcmp ogt double %7, 0.000000e+00
  %. = select i1 %11, i32 11, i32 28
  br label %12

12:                                               ; preds = %10, %0
  %.sink = phi i32 [ 11, %0 ], [ %., %10 ]
  call void @_ZN14XDriverRequestC1EN7GCCause5CauseE(ptr noundef nonnull align 4 dereferenceable(8) %1, i32 noundef %.sink) #8
  %13 = load i64, ptr %1, align 8
  ret i64 %13
}